
naughty:     file format elf32-i386


Disassembly of section .interp:

08048154 <.interp>:
 8048154:	2f                   	das    
 8048155:	6c                   	ins    BYTE PTR es:[edi],dx
 8048156:	69 62 2f 6c 64 2d 6c 	imul   esp,DWORD PTR [edx+0x2f],0x6c2d646c
 804815d:	69 6e 75 78 2e 73 6f 	imul   ebp,DWORD PTR [esi+0x75],0x6f732e78
 8048164:	2e 32 00             	xor    al,BYTE PTR cs:[eax]

Disassembly of section .note.ABI-tag:

08048168 <.note.ABI-tag>:
 8048168:	04 00                	add    al,0x0
 804816a:	00 00                	add    BYTE PTR [eax],al
 804816c:	10 00                	adc    BYTE PTR [eax],al
 804816e:	00 00                	add    BYTE PTR [eax],al
 8048170:	01 00                	add    DWORD PTR [eax],eax
 8048172:	00 00                	add    BYTE PTR [eax],al
 8048174:	47                   	inc    edi
 8048175:	4e                   	dec    esi
 8048176:	55                   	push   ebp
 8048177:	00 00                	add    BYTE PTR [eax],al
 8048179:	00 00                	add    BYTE PTR [eax],al
 804817b:	00 03                	add    BYTE PTR [ebx],al
 804817d:	00 00                	add    BYTE PTR [eax],al
 804817f:	00 02                	add    BYTE PTR [edx],al
 8048181:	00 00                	add    BYTE PTR [eax],al
 8048183:	00 00                	add    BYTE PTR [eax],al
 8048185:	00 00                	add    BYTE PTR [eax],al
	...

Disassembly of section .note.gnu.build-id:

08048188 <.note.gnu.build-id>:
 8048188:	04 00                	add    al,0x0
 804818a:	00 00                	add    BYTE PTR [eax],al
 804818c:	14 00                	adc    al,0x0
 804818e:	00 00                	add    BYTE PTR [eax],al
 8048190:	03 00                	add    eax,DWORD PTR [eax]
 8048192:	00 00                	add    BYTE PTR [eax],al
 8048194:	47                   	inc    edi
 8048195:	4e                   	dec    esi
 8048196:	55                   	push   ebp
 8048197:	00 21                	add    BYTE PTR [ecx],ah
 8048199:	13 aa 2f 5f 93 28    	adc    ebp,DWORD PTR [edx+0x28935f2f]
 804819f:	36 f7 0e 7a e5 23 0c 	test   DWORD PTR ss:[esi],0xc23e57a
 80481a6:	25 5e 64 2a 81       	and    eax,0x812a645e
 80481ab:	26                   	es

Disassembly of section .gnu.hash:

080481ac <.gnu.hash>:
 80481ac:	02 00                	add    al,BYTE PTR [eax]
 80481ae:	00 00                	add    BYTE PTR [eax],al
 80481b0:	07                   	pop    es
 80481b1:	00 00                	add    BYTE PTR [eax],al
 80481b3:	00 01                	add    BYTE PTR [ecx],al
 80481b5:	00 00                	add    BYTE PTR [eax],al
 80481b7:	00 05 00 00 00 00    	add    BYTE PTR ds:0x0,al
 80481bd:	20 00                	and    BYTE PTR [eax],al
 80481bf:	20 00                	and    BYTE PTR [eax],al
 80481c1:	00 00                	add    BYTE PTR [eax],al
 80481c3:	00 07                	add    BYTE PTR [edi],al
 80481c5:	00 00                	add    BYTE PTR [eax],al
 80481c7:	00                   	.byte 0x0
 80481c8:	ad                   	lods   eax,DWORD PTR ds:[esi]
 80481c9:	4b                   	dec    ebx
 80481ca:	e3 c0                	jecxz  804818c <_init-0x17c>

Disassembly of section .dynsym:

080481cc <.dynsym>:
	...
 80481dc:	24 00                	and    al,0x0
	...
 80481e6:	00 00                	add    BYTE PTR [eax],al
 80481e8:	12 00                	adc    al,BYTE PTR [eax]
 80481ea:	00 00                	add    BYTE PTR [eax],al
 80481ec:	1f                   	pop    ds
	...
 80481f5:	00 00                	add    BYTE PTR [eax],al
 80481f7:	00 12                	add    BYTE PTR [edx],dl
 80481f9:	00 00                	add    BYTE PTR [eax],al
 80481fb:	00 4c 00 00          	add    BYTE PTR [eax+eax*1+0x0],cl
	...
 8048207:	00 20                	add    BYTE PTR [eax],ah
 8048209:	00 00                	add    BYTE PTR [eax],al
 804820b:	00 1a                	add    BYTE PTR [edx],bl
	...
 8048215:	00 00                	add    BYTE PTR [eax],al
 8048217:	00 12                	add    BYTE PTR [edx],dl
 8048219:	00 00                	add    BYTE PTR [eax],al
 804821b:	00 30                	add    BYTE PTR [eax],dh
	...
 8048225:	00 00                	add    BYTE PTR [eax],al
 8048227:	00 12                	add    BYTE PTR [edx],dl
 8048229:	00 00                	add    BYTE PTR [eax],al
 804822b:	00 29                	add    BYTE PTR [ecx],ch
	...
 8048235:	00 00                	add    BYTE PTR [eax],al
 8048237:	00 12                	add    BYTE PTR [edx],dl
 8048239:	00 00                	add    BYTE PTR [eax],al
 804823b:	00 0b                	add    BYTE PTR [ebx],cl
 804823d:	00 00                	add    BYTE PTR [eax],al
 804823f:	00 9c 88 04 08 04 00 	add    BYTE PTR [eax+ecx*4+0x40804],bl
 8048246:	00 00                	add    BYTE PTR [eax],al
 8048248:	11 00                	adc    DWORD PTR [eax],eax
 804824a:	10 00                	adc    BYTE PTR [eax],al

Disassembly of section .dynstr:

0804824c <.dynstr>:
 804824c:	00 6c 69 62          	add    BYTE PTR [ecx+ebp*2+0x62],ch
 8048250:	63 2e                	arpl   WORD PTR [esi],bp
 8048252:	73 6f                	jae    80482c3 <_init-0x45>
 8048254:	2e 36 00 5f 49       	cs add BYTE PTR ss:[edi+0x49],bl
 8048259:	4f                   	dec    edi
 804825a:	5f                   	pop    edi
 804825b:	73 74                	jae    80482d1 <_init-0x37>
 804825d:	64 69 6e 5f 75 73 65 	imul   ebp,DWORD PTR fs:[esi+0x5f],0x64657375
 8048264:	64 
 8048265:	00 65 78             	add    BYTE PTR [ebp+0x78],ah
 8048268:	69 74 00 70 75 74 73 	imul   esi,DWORD PTR [eax+eax*1+0x70],0x737475
 804826f:	00 
 8048270:	72 65                	jb     80482d7 <_init-0x31>
 8048272:	61                   	popa   
 8048273:	64 00 70 74          	add    BYTE PTR fs:[eax+0x74],dh
 8048277:	72 61                	jb     80482da <_init-0x2e>
 8048279:	63 65 00             	arpl   WORD PTR [ebp+0x0],sp
 804827c:	5f                   	pop    edi
 804827d:	5f                   	pop    edi
 804827e:	6c                   	ins    BYTE PTR es:[edi],dx
 804827f:	69 62 63 5f 73 74 61 	imul   esp,DWORD PTR [edx+0x63],0x6174735f
 8048286:	72 74                	jb     80482fc <_init-0xc>
 8048288:	5f                   	pop    edi
 8048289:	6d                   	ins    DWORD PTR es:[edi],dx
 804828a:	61                   	popa   
 804828b:	69 6e 00 47 4c 49 42 	imul   ebp,DWORD PTR [esi+0x0],0x42494c47
 8048292:	43                   	inc    ebx
 8048293:	5f                   	pop    edi
 8048294:	32 2e                	xor    ch,BYTE PTR [esi]
 8048296:	30 00                	xor    BYTE PTR [eax],al
 8048298:	5f                   	pop    edi
 8048299:	5f                   	pop    edi
 804829a:	67 6d                	ins    DWORD PTR es:[di],dx
 804829c:	6f                   	outs   dx,DWORD PTR ds:[esi]
 804829d:	6e                   	outs   dx,BYTE PTR ds:[esi]
 804829e:	5f                   	pop    edi
 804829f:	73 74                	jae    8048315 <_init+0xd>
 80482a1:	61                   	popa   
 80482a2:	72 74                	jb     8048318 <_init+0x10>
 80482a4:	5f                   	pop    edi
 80482a5:	5f                   	pop    edi
	...

Disassembly of section .gnu.version:

080482a8 <.gnu.version>:
 80482a8:	00 00                	add    BYTE PTR [eax],al
 80482aa:	02 00                	add    al,BYTE PTR [eax]
 80482ac:	02 00                	add    al,BYTE PTR [eax]
 80482ae:	00 00                	add    BYTE PTR [eax],al
 80482b0:	02 00                	add    al,BYTE PTR [eax]
 80482b2:	02 00                	add    al,BYTE PTR [eax]
 80482b4:	02 00                	add    al,BYTE PTR [eax]
 80482b6:	01 00                	add    DWORD PTR [eax],eax

Disassembly of section .gnu.version_r:

080482b8 <.gnu.version_r>:
 80482b8:	01 00                	add    DWORD PTR [eax],eax
 80482ba:	01 00                	add    DWORD PTR [eax],eax
 80482bc:	01 00                	add    DWORD PTR [eax],eax
 80482be:	00 00                	add    BYTE PTR [eax],al
 80482c0:	10 00                	adc    BYTE PTR [eax],al
 80482c2:	00 00                	add    BYTE PTR [eax],al
 80482c4:	00 00                	add    BYTE PTR [eax],al
 80482c6:	00 00                	add    BYTE PTR [eax],al
 80482c8:	10 69 69             	adc    BYTE PTR [ecx+0x69],ch
 80482cb:	0d 00 00 02 00       	or     eax,0x20000
 80482d0:	42                   	inc    edx
 80482d1:	00 00                	add    BYTE PTR [eax],al
 80482d3:	00 00                	add    BYTE PTR [eax],al
 80482d5:	00 00                	add    BYTE PTR [eax],al
	...

Disassembly of section .rel.dyn:

080482d8 <.rel.dyn>:
 80482d8:	fc                   	cld    
 80482d9:	9f                   	lahf   
 80482da:	04 08                	add    al,0x8
 80482dc:	06                   	push   es
 80482dd:	03 00                	add    eax,DWORD PTR [eax]
	...

Disassembly of section .rel.plt:

080482e0 <.rel.plt>:
 80482e0:	0c a0                	or     al,0xa0
 80482e2:	04 08                	add    al,0x8
 80482e4:	07                   	pop    es
 80482e5:	01 00                	add    DWORD PTR [eax],eax
 80482e7:	00 10                	add    BYTE PTR [eax],dl
 80482e9:	a0 04 08 07 02       	mov    al,ds:0x2070804
 80482ee:	00 00                	add    BYTE PTR [eax],al
 80482f0:	14 a0                	adc    al,0xa0
 80482f2:	04 08                	add    al,0x8
 80482f4:	07                   	pop    es
 80482f5:	04 00                	add    al,0x0
 80482f7:	00 18                	add    BYTE PTR [eax],bl
 80482f9:	a0 04 08 07 05       	mov    al,ds:0x5070804
 80482fe:	00 00                	add    BYTE PTR [eax],al
 8048300:	1c a0                	sbb    al,0xa0
 8048302:	04 08                	add    al,0x8
 8048304:	07                   	pop    es
 8048305:	06                   	push   es
	...

Disassembly of section .init:

08048308 <_init>:
 8048308:	53                   	push   ebx
 8048309:	83 ec 08             	sub    esp,0x8
 804830c:	e8 df 00 00 00       	call   80483f0 <__x86.get_pc_thunk.bx>
 8048311:	81 c3 ef 1c 00 00    	add    ebx,0x1cef
 8048317:	8b 83 fc ff ff ff    	mov    eax,DWORD PTR [ebx-0x4]
 804831d:	85 c0                	test   eax,eax
 804831f:	74 05                	je     8048326 <_init+0x1e>
 8048321:	e8 6a 00 00 00       	call   8048390 <__gmon_start__@plt>
 8048326:	83 c4 08             	add    esp,0x8
 8048329:	5b                   	pop    ebx
 804832a:	c3                   	ret    

Disassembly of section .plt:

08048330 <.plt>:
 8048330:	ff 35 04 a0 04 08    	push   DWORD PTR ds:0x804a004
 8048336:	ff 25 08 a0 04 08    	jmp    DWORD PTR ds:0x804a008
 804833c:	00 00                	add    BYTE PTR [eax],al
	...

08048340 <read@plt>:
 8048340:	ff 25 0c a0 04 08    	jmp    DWORD PTR ds:0x804a00c
 8048346:	68 00 00 00 00       	push   0x0
 804834b:	e9 e0 ff ff ff       	jmp    8048330 <.plt>

08048350 <puts@plt>:
 8048350:	ff 25 10 a0 04 08    	jmp    DWORD PTR ds:0x804a010
 8048356:	68 08 00 00 00       	push   0x8
 804835b:	e9 d0 ff ff ff       	jmp    8048330 <.plt>

08048360 <exit@plt>:
 8048360:	ff 25 14 a0 04 08    	jmp    DWORD PTR ds:0x804a014
 8048366:	68 10 00 00 00       	push   0x10
 804836b:	e9 c0 ff ff ff       	jmp    8048330 <.plt>

08048370 <__libc_start_main@plt>:
 8048370:	ff 25 18 a0 04 08    	jmp    DWORD PTR ds:0x804a018
 8048376:	68 18 00 00 00       	push   0x18
 804837b:	e9 b0 ff ff ff       	jmp    8048330 <.plt>

08048380 <ptrace@plt>:
 8048380:	ff 25 1c a0 04 08    	jmp    DWORD PTR ds:0x804a01c
 8048386:	68 20 00 00 00       	push   0x20
 804838b:	e9 a0 ff ff ff       	jmp    8048330 <.plt>

Disassembly of section .plt.got:

08048390 <__gmon_start__@plt>:
 8048390:	ff 25 fc 9f 04 08    	jmp    DWORD PTR ds:0x8049ffc
 8048396:	66 90                	xchg   ax,ax

Disassembly of section .text:

080483a0 <_start>:
 80483a0:	31 ed                	xor    ebp,ebp
 80483a2:	5e                   	pop    esi
 80483a3:	89 e1                	mov    ecx,esp
 80483a5:	83 e4 f0             	and    esp,0xfffffff0
 80483a8:	50                   	push   eax
 80483a9:	54                   	push   esp
 80483aa:	52                   	push   edx
 80483ab:	e8 23 00 00 00       	call   80483d3 <_start+0x33>
 80483b0:	81 c3 50 1c 00 00    	add    ebx,0x1c50
 80483b6:	8d 83 80 e8 ff ff    	lea    eax,[ebx-0x1780]
 80483bc:	50                   	push   eax
 80483bd:	8d 83 20 e8 ff ff    	lea    eax,[ebx-0x17e0]
 80483c3:	50                   	push   eax
 80483c4:	51                   	push   ecx
 80483c5:	56                   	push   esi
 80483c6:	c7 c0 6c 87 04 08    	mov    eax,0x804876c
 80483cc:	50                   	push   eax
 80483cd:	e8 9e ff ff ff       	call   8048370 <__libc_start_main@plt>
 80483d2:	f4                   	hlt    
 80483d3:	8b 1c 24             	mov    ebx,DWORD PTR [esp]
 80483d6:	c3                   	ret    
 80483d7:	66 90                	xchg   ax,ax
 80483d9:	66 90                	xchg   ax,ax
 80483db:	66 90                	xchg   ax,ax
 80483dd:	66 90                	xchg   ax,ax
 80483df:	90                   	nop

080483e0 <_dl_relocate_static_pie>:
 80483e0:	f3 c3                	repz ret 
 80483e2:	66 90                	xchg   ax,ax
 80483e4:	66 90                	xchg   ax,ax
 80483e6:	66 90                	xchg   ax,ax
 80483e8:	66 90                	xchg   ax,ax
 80483ea:	66 90                	xchg   ax,ax
 80483ec:	66 90                	xchg   ax,ax
 80483ee:	66 90                	xchg   ax,ax

080483f0 <__x86.get_pc_thunk.bx>:
 80483f0:	8b 1c 24             	mov    ebx,DWORD PTR [esp]
 80483f3:	c3                   	ret    
 80483f4:	66 90                	xchg   ax,ax
 80483f6:	66 90                	xchg   ax,ax
 80483f8:	66 90                	xchg   ax,ax
 80483fa:	66 90                	xchg   ax,ax
 80483fc:	66 90                	xchg   ax,ax
 80483fe:	66 90                	xchg   ax,ax
 8048400:	b8 70 a0 04 08       	mov    eax,0x804a070
 8048405:	3d 70 a0 04 08       	cmp    eax,0x804a070
 804840a:	74 24                	je     8048430 <__x86.get_pc_thunk.bx+0x40>
 804840c:	b8 00 00 00 00       	mov    eax,0x0
 8048411:	85 c0                	test   eax,eax
 8048413:	74 1b                	je     8048430 <__x86.get_pc_thunk.bx+0x40>
 8048415:	55                   	push   ebp
 8048416:	89 e5                	mov    ebp,esp
 8048418:	83 ec 14             	sub    esp,0x14
 804841b:	68 70 a0 04 08       	push   0x804a070
 8048420:	ff d0                	call   eax
 8048422:	83 c4 10             	add    esp,0x10
 8048425:	c9                   	leave  
 8048426:	c3                   	ret    
 8048427:	89 f6                	mov    esi,esi
 8048429:	8d bc 27 00 00 00 00 	lea    edi,[edi+eiz*1+0x0]
 8048430:	f3 c3                	repz ret 
 8048432:	8d b4 26 00 00 00 00 	lea    esi,[esi+eiz*1+0x0]
 8048439:	8d bc 27 00 00 00 00 	lea    edi,[edi+eiz*1+0x0]
 8048440:	b8 70 a0 04 08       	mov    eax,0x804a070
 8048445:	2d 70 a0 04 08       	sub    eax,0x804a070
 804844a:	c1 f8 02             	sar    eax,0x2
 804844d:	89 c2                	mov    edx,eax
 804844f:	c1 ea 1f             	shr    edx,0x1f
 8048452:	01 d0                	add    eax,edx
 8048454:	d1 f8                	sar    eax,1
 8048456:	74 20                	je     8048478 <__x86.get_pc_thunk.bx+0x88>
 8048458:	ba 00 00 00 00       	mov    edx,0x0
 804845d:	85 d2                	test   edx,edx
 804845f:	74 17                	je     8048478 <__x86.get_pc_thunk.bx+0x88>
 8048461:	55                   	push   ebp
 8048462:	89 e5                	mov    ebp,esp
 8048464:	83 ec 10             	sub    esp,0x10
 8048467:	50                   	push   eax
 8048468:	68 70 a0 04 08       	push   0x804a070
 804846d:	ff d2                	call   edx
 804846f:	83 c4 10             	add    esp,0x10
 8048472:	c9                   	leave  
 8048473:	c3                   	ret    
 8048474:	8d 74 26 00          	lea    esi,[esi+eiz*1+0x0]
 8048478:	f3 c3                	repz ret 
 804847a:	8d b6 00 00 00 00    	lea    esi,[esi+0x0]
 8048480:	80 3d 6e a0 04 08 00 	cmp    BYTE PTR ds:0x804a06e,0x0
 8048487:	75 17                	jne    80484a0 <__x86.get_pc_thunk.bx+0xb0>
 8048489:	55                   	push   ebp
 804848a:	89 e5                	mov    ebp,esp
 804848c:	83 ec 08             	sub    esp,0x8
 804848f:	e8 6c ff ff ff       	call   8048400 <__x86.get_pc_thunk.bx+0x10>
 8048494:	c6 05 6e a0 04 08 01 	mov    BYTE PTR ds:0x804a06e,0x1
 804849b:	c9                   	leave  
 804849c:	c3                   	ret    
 804849d:	8d 76 00             	lea    esi,[esi+0x0]
 80484a0:	f3 c3                	repz ret 
 80484a2:	8d b4 26 00 00 00 00 	lea    esi,[esi+eiz*1+0x0]
 80484a9:	8d bc 27 00 00 00 00 	lea    edi,[edi+eiz*1+0x0]
 80484b0:	55                   	push   ebp
 80484b1:	89 e5                	mov    ebp,esp
 80484b3:	5d                   	pop    ebp
 80484b4:	eb 8a                	jmp    8048440 <__x86.get_pc_thunk.bx+0x50>
 80484b6:	66 90                	xchg   ax,ax
 80484b8:	66 90                	xchg   ax,ax
 80484ba:	66 90                	xchg   ax,ax
 80484bc:	66 90                	xchg   ax,ax
 80484be:	66 90                	xchg   ax,ax
 80484c0:	53                   	push   ebx
 80484c1:	8b 54 24 08          	mov    edx,DWORD PTR [esp+0x8]
 80484c5:	8b 44 24 0c          	mov    eax,DWORD PTR [esp+0xc]
 80484c9:	0f b6 0a             	movzx  ecx,BYTE PTR [edx]
 80484cc:	0f b6 18             	movzx  ebx,BYTE PTR [eax]
 80484cf:	88 1a                	mov    BYTE PTR [edx],bl
 80484d1:	88 08                	mov    BYTE PTR [eax],cl
 80484d3:	5b                   	pop    ebx
 80484d4:	c3                   	ret    
 80484d5:	55                   	push   ebp
 80484d6:	31 c0                	xor    eax,eax
 80484d8:	57                   	push   edi
 80484d9:	56                   	push   esi
 80484da:	53                   	push   ebx
 80484db:	8b 74 24 14          	mov    esi,DWORD PTR [esp+0x14]
 80484df:	8b 6c 24 18          	mov    ebp,DWORD PTR [esp+0x18]
 80484e3:	66 90                	xchg   ax,ax
 80484e5:	88 04 06             	mov    BYTE PTR [esi+eax*1],al
 80484e8:	83 c0 01             	add    eax,0x1
 80484eb:	3d 00 01 00 00       	cmp    eax,0x100
 80484f0:	75 f3                	jne    80484e5 <__x86.get_pc_thunk.bx+0xf5>
 80484f2:	31 c9                	xor    ecx,ecx
 80484f4:	31 db                	xor    ebx,ebx
 80484f6:	89 d8                	mov    eax,ebx
 80484f8:	0f b6 3c 1e          	movzx  edi,BYTE PTR [esi+ebx*1]
 80484fc:	99                   	cdq    
 80484fd:	f7 7c 24 1c          	idiv   DWORD PTR [esp+0x1c]
 8048501:	89 f8                	mov    eax,edi
 8048503:	02 44 15 00          	add    al,BYTE PTR [ebp+edx*1+0x0]
 8048507:	01 c1                	add    ecx,eax
 8048509:	0f b6 c9             	movzx  ecx,cl
 804850c:	0f b6 04 0e          	movzx  eax,BYTE PTR [esi+ecx*1]
 8048510:	88 04 1e             	mov    BYTE PTR [esi+ebx*1],al
 8048513:	89 f8                	mov    eax,edi
 8048515:	83 c3 01             	add    ebx,0x1
 8048518:	88 04 0e             	mov    BYTE PTR [esi+ecx*1],al
 804851b:	81 fb 00 01 00 00    	cmp    ebx,0x100
 8048521:	75 d3                	jne    80484f6 <__x86.get_pc_thunk.bx+0x106>
 8048523:	5b                   	pop    ebx
 8048524:	5e                   	pop    esi
 8048525:	5f                   	pop    edi
 8048526:	5d                   	pop    ebp
 8048527:	c3                   	ret    
 8048528:	55                   	push   ebp
 8048529:	57                   	push   edi
 804852a:	56                   	push   esi
 804852b:	53                   	push   ebx
 804852c:	8b 7c 24 1c          	mov    edi,DWORD PTR [esp+0x1c]
 8048530:	8b 4c 24 14          	mov    ecx,DWORD PTR [esp+0x14]
 8048534:	85 ff                	test   edi,edi
 8048536:	7e 38                	jle    8048570 <__x86.get_pc_thunk.bx+0x180>
 8048538:	8b 74 24 18          	mov    esi,DWORD PTR [esp+0x18]
 804853c:	31 db                	xor    ebx,ebx
 804853e:	31 d2                	xor    edx,edx
 8048540:	01 f7                	add    edi,esi
 8048542:	83 c2 01             	add    edx,0x1
 8048545:	0f b6 d2             	movzx  edx,dl
 8048548:	0f b6 2c 11          	movzx  ebp,BYTE PTR [ecx+edx*1]
 804854c:	01 eb                	add    ebx,ebp
 804854e:	0f b6 db             	movzx  ebx,bl
 8048551:	0f b6 04 19          	movzx  eax,BYTE PTR [ecx+ebx*1]
 8048555:	88 04 11             	mov    BYTE PTR [ecx+edx*1],al
 8048558:	89 e8                	mov    eax,ebp
 804855a:	88 04 19             	mov    BYTE PTR [ecx+ebx*1],al
 804855d:	02 04 11             	add    al,BYTE PTR [ecx+edx*1]
 8048560:	0f b6 c0             	movzx  eax,al
 8048563:	0f b6 04 01          	movzx  eax,BYTE PTR [ecx+eax*1]
 8048567:	30 06                	xor    BYTE PTR [esi],al
 8048569:	83 c6 01             	add    esi,0x1
 804856c:	39 f7                	cmp    edi,esi
 804856e:	75 d2                	jne    8048542 <__x86.get_pc_thunk.bx+0x152>
 8048570:	5b                   	pop    ebx
 8048571:	5e                   	pop    esi
 8048572:	5f                   	pop    edi
 8048573:	5d                   	pop    ebp
 8048574:	c3                   	ret    
 8048575:	55                   	push   ebp
 8048576:	89 e5                	mov    ebp,esp
 8048578:	81 ec 08 01 00 00    	sub    esp,0x108
 804857e:	83 ec 04             	sub    esp,0x4
 8048581:	ff 75 0c             	push   DWORD PTR [ebp+0xc]
 8048584:	ff 75 08             	push   DWORD PTR [ebp+0x8]
 8048587:	8d 85 f8 fe ff ff    	lea    eax,[ebp-0x108]
 804858d:	50                   	push   eax
 804858e:	e8 42 ff ff ff       	call   80484d5 <__x86.get_pc_thunk.bx+0xe5>
 8048593:	83 c4 10             	add    esp,0x10
 8048596:	83 ec 04             	sub    esp,0x4
 8048599:	6a 2e                	push   0x2e
 804859b:	68 28 a0 04 08       	push   0x804a028
 80485a0:	8d 85 f8 fe ff ff    	lea    eax,[ebp-0x108]
 80485a6:	50                   	push   eax
 80485a7:	e8 7c ff ff ff       	call   8048528 <__x86.get_pc_thunk.bx+0x138>
 80485ac:	83 c4 10             	add    esp,0x10
 80485af:	c9                   	leave  
 80485b0:	c3                   	ret    

080485b1 <print_flag>:
 80485b1:	55                   	push   ebp
 80485b2:	89 e5                	mov    ebp,esp
 80485b4:	6a 04                	push   0x4
 80485b6:	68 69 a0 04 08       	push   0x804a069
 80485bb:	6a 00                	push   0x0
 80485bd:	6a 00                	push   0x0
 80485bf:	6a 00                	push   0x0
 80485c1:	6a 00                	push   0x0
 80485c3:	e8 b8 fd ff ff       	call   8048380 <ptrace@plt>
 80485c8:	83 c4 10             	add    esp,0x10
 80485cb:	83 f8 ff             	cmp    eax,0xffffffff
 80485ce:	75 07                	jne    80485d7 <print_flag+0x26>
 80485d0:	6a 01                	push   0x1
 80485d2:	e8 89 fd ff ff       	call   8048360 <exit@plt>
 80485d7:	e8 99 ff ff ff       	call   8048575 <__x86.get_pc_thunk.bx+0x185>
 80485dc:	68 28 a0 04 08       	push   0x804a028
 80485e1:	e8 6a fd ff ff       	call   8048350 <puts@plt>
 80485e6:	c9                   	leave  
 80485e7:	c3                   	ret    
 80485e8:	55                   	push   ebp
 80485e9:	89 e5                	mov    ebp,esp
 80485eb:	68 57 a0 04 08       	push   0x804a057
 80485f0:	e8 5b fd ff ff       	call   8048350 <puts@plt>
 80485f5:	6a 00                	push   0x0
 80485f7:	e8 64 fd ff ff       	call   8048360 <exit@plt>
 80485fc:	c9                   	leave  
 80485fd:	c3                   	ret    
 80485fe:	55                   	push   ebp
 80485ff:	89 e5                	mov    ebp,esp
 8048601:	81 ec aa 01 00 00    	sub    esp,0x1aa
 8048607:	89 e2                	mov    edx,esp
 8048609:	68 8b 00 00 00       	push   0x8b
 804860e:	52                   	push   edx
 804860f:	6a 00                	push   0x0
 8048611:	e8 2a fd ff ff       	call   8048340 <read@plt>
 8048616:	81 bd 65 fe ff ff 1a 	cmp    DWORD PTR [ebp-0x19b],0x59c4631a
 804861d:	63 c4 59 
 8048620:	74 07                	je     8048629 <print_flag+0x78>
 8048622:	6a 01                	push   0x1
 8048624:	e8 37 fd ff ff       	call   8048360 <exit@plt>
 8048629:	c9                   	leave  
 804862a:	c3                   	ret    
 804862b:	55                   	push   ebp
 804862c:	89 e5                	mov    ebp,esp
 804862e:	81 ec 0b 01 00 00    	sub    esp,0x10b
 8048634:	89 e2                	mov    edx,esp
 8048636:	68 aa 00 00 00       	push   0xaa
 804863b:	52                   	push   edx
 804863c:	6a 00                	push   0x0
 804863e:	e8 fd fc ff ff       	call   8048340 <read@plt>
 8048643:	81 bd 26 ff ff ff e4 	cmp    DWORD PTR [ebp-0xda],0x625ae1e4
 804864a:	e1 5a 62 
 804864d:	74 07                	je     8048656 <print_flag+0xa5>
 804864f:	6a 01                	push   0x1
 8048651:	e8 0a fd ff ff       	call   8048360 <exit@plt>
 8048656:	c9                   	leave  
 8048657:	c3                   	ret    
 8048658:	55                   	push   ebp
 8048659:	89 e5                	mov    ebp,esp
 804865b:	81 ec 1a 01 00 00    	sub    esp,0x11a
 8048661:	89 e2                	mov    edx,esp
 8048663:	68 d7 00 00 00       	push   0xd7
 8048668:	52                   	push   edx
 8048669:	6a 00                	push   0x0
 804866b:	e8 d0 fc ff ff       	call   8048340 <read@plt>
 8048670:	81 bd 1f ff ff ff c7 	cmp    DWORD PTR [ebp-0xe1],0xf9e083c7
 8048677:	83 e0 f9 
 804867a:	74 07                	je     8048683 <print_flag+0xd2>
 804867c:	6a 01                	push   0x1
 804867e:	e8 dd fc ff ff       	call   8048360 <exit@plt>
 8048683:	c9                   	leave  
 8048684:	c3                   	ret    
 8048685:	55                   	push   ebp
 8048686:	89 e5                	mov    ebp,esp
 8048688:	81 ec d8 01 00 00    	sub    esp,0x1d8
 804868e:	89 e2                	mov    edx,esp
 8048690:	68 9f 03 00 00       	push   0x39f
 8048695:	52                   	push   edx
 8048696:	6a 00                	push   0x0
 8048698:	e8 a3 fc ff ff       	call   8048340 <read@plt>
 804869d:	81 bd ef fe ff ff 4e 	cmp    DWORD PTR [ebp-0x111],0x1ba75f4e
 80486a4:	5f a7 1b 
 80486a7:	74 07                	je     80486b0 <print_flag+0xff>
 80486a9:	6a 01                	push   0x1
 80486ab:	e8 b0 fc ff ff       	call   8048360 <exit@plt>
 80486b0:	8b 45 08             	mov    eax,DWORD PTR [ebp+0x8]
 80486b3:	ff d0                	call   eax
 80486b5:	6a 00                	push   0x0
 80486b7:	e8 a4 fc ff ff       	call   8048360 <exit@plt>
 80486bc:	c9                   	leave  
 80486bd:	c3                   	ret    
 80486be:	55                   	push   ebp
 80486bf:	89 e5                	mov    ebp,esp
 80486c1:	81 ec d8 01 00 00    	sub    esp,0x1d8
 80486c7:	89 e2                	mov    edx,esp
 80486c9:	68 e1 00 00 00       	push   0xe1
 80486ce:	52                   	push   edx
 80486cf:	6a 00                	push   0x0
 80486d1:	e8 6a fc ff ff       	call   8048340 <read@plt>
 80486d6:	81 bd 7d fe ff ff 38 	cmp    DWORD PTR [ebp-0x183],0x44fa0a38
 80486dd:	0a fa 44 
 80486e0:	74 07                	je     80486e9 <print_flag+0x138>
 80486e2:	6a 01                	push   0x1
 80486e4:	e8 77 fc ff ff       	call   8048360 <exit@plt>
 80486e9:	c9                   	leave  
 80486ea:	c3                   	ret    
 80486eb:	55                   	push   ebp
 80486ec:	89 e5                	mov    ebp,esp
 80486ee:	81 ec 66 01 00 00    	sub    esp,0x166
 80486f4:	89 e2                	mov    edx,esp
 80486f6:	68 23 01 00 00       	push   0x123
 80486fb:	52                   	push   edx
 80486fc:	6a 00                	push   0x0
 80486fe:	e8 3d fc ff ff       	call   8048340 <read@plt>
 8048703:	81 bd d2 fe ff ff 19 	cmp    DWORD PTR [ebp-0x12e],0x4613d619
 804870a:	d6 13 46 
 804870d:	74 07                	je     8048716 <print_flag+0x165>
 804870f:	6a 01                	push   0x1
 8048711:	e8 4a fc ff ff       	call   8048360 <exit@plt>
 8048716:	c9                   	leave  
 8048717:	c3                   	ret    
 8048718:	55                   	push   ebp
 8048719:	89 e5                	mov    ebp,esp
 804871b:	81 ec 51 01 00 00    	sub    esp,0x151
 8048721:	89 e2                	mov    edx,esp
 8048723:	68 28 01 00 00       	push   0x128
 8048728:	52                   	push   edx
 8048729:	6a 00                	push   0x0
 804872b:	e8 10 fc ff ff       	call   8048340 <read@plt>
 8048730:	81 7d a3 9b 7f 9c a2 	cmp    DWORD PTR [ebp-0x5d],0xa29c7f9b
 8048737:	74 07                	je     8048740 <print_flag+0x18f>
 8048739:	6a 01                	push   0x1
 804873b:	e8 20 fc ff ff       	call   8048360 <exit@plt>
 8048740:	c9                   	leave  
 8048741:	c3                   	ret    
 8048742:	55                   	push   ebp
 8048743:	89 e5                	mov    ebp,esp
 8048745:	81 ec dc 00 00 00    	sub    esp,0xdc
 804874b:	89 e2                	mov    edx,esp
 804874d:	68 d4 00 00 00       	push   0xd4
 8048752:	52                   	push   edx
 8048753:	6a 00                	push   0x0
 8048755:	e8 e6 fb ff ff       	call   8048340 <read@plt>
 804875a:	81 7d 9b a5 5e 51 97 	cmp    DWORD PTR [ebp-0x65],0x97515ea5
 8048761:	74 07                	je     804876a <print_flag+0x1b9>
 8048763:	6a 01                	push   0x1
 8048765:	e8 f6 fb ff ff       	call   8048360 <exit@plt>
 804876a:	c9                   	leave  
 804876b:	c3                   	ret    

0804876c <main>:
 804876c:	55                   	push   ebp
 804876d:	89 e5                	mov    ebp,esp
 804876f:	68 5b 8b 04 08       	push   0x8048b5b
 8048774:	68 3f 97 04 08       	push   0x804973f
 8048779:	68 65 36 04 08       	push   0x8043665
 804877e:	68 9c 6d 04 08       	push   0x8046d9c
 8048783:	68 93 94 04 08       	push   0x8049493
 8048788:	68 9a 0f 04 08       	push   0x8040f9a
 804878d:	e8 6c fe ff ff       	call   80485fe <print_flag+0x4d>
 8048792:	68 48 08 04 08       	push   0x8040848
 8048797:	68 4e 29 04 08       	push   0x804294e
 804879c:	68 39 15 04 08       	push   0x8041539
 80487a1:	68 3a 10 04 08       	push   0x804103a
 80487a6:	e8 80 fe ff ff       	call   804862b <print_flag+0x7a>
 80487ab:	68 09 36 04 08       	push   0x8043609
 80487b0:	e8 a3 fe ff ff       	call   8048658 <print_flag+0xa7>
 80487b5:	68 e8 85 04 08       	push   0x80485e8
 80487ba:	e8 c6 fe ff ff       	call   8048685 <print_flag+0xd4>
 80487bf:	68 8e 1c 04 08       	push   0x8041c8e
 80487c4:	68 09 25 04 08       	push   0x8042509
 80487c9:	68 87 b8 04 08       	push   0x804b887
 80487ce:	68 b6 66 04 08       	push   0x80466b6
 80487d3:	e8 e6 fe ff ff       	call   80486be <print_flag+0x10d>
 80487d8:	68 29 66 04 08       	push   0x8046629
 80487dd:	e8 09 ff ff ff       	call   80486eb <print_flag+0x13a>
 80487e2:	68 2b 07 04 08       	push   0x804072b
 80487e7:	68 97 e4 04 08       	push   0x804e497
 80487ec:	68 59 b6 04 08       	push   0x804b659
 80487f1:	68 b9 44 04 08       	push   0x80444b9
 80487f6:	68 58 28 04 08       	push   0x8042858
 80487fb:	e8 18 ff ff ff       	call   8048718 <print_flag+0x167>
 8048800:	68 c9 ee 04 08       	push   0x804eec9
 8048805:	68 43 69 04 08       	push   0x8046943
 804880a:	e8 33 ff ff ff       	call   8048742 <print_flag+0x191>
 804880f:	c9                   	leave  
 8048810:	c3                   	ret    
 8048811:	66 90                	xchg   ax,ax
 8048813:	66 90                	xchg   ax,ax
 8048815:	66 90                	xchg   ax,ax
 8048817:	66 90                	xchg   ax,ax
 8048819:	66 90                	xchg   ax,ax
 804881b:	66 90                	xchg   ax,ax
 804881d:	66 90                	xchg   ax,ax
 804881f:	90                   	nop

08048820 <__libc_csu_init>:
 8048820:	55                   	push   ebp
 8048821:	57                   	push   edi
 8048822:	56                   	push   esi
 8048823:	53                   	push   ebx
 8048824:	e8 c7 fb ff ff       	call   80483f0 <__x86.get_pc_thunk.bx>
 8048829:	81 c3 d7 17 00 00    	add    ebx,0x17d7
 804882f:	83 ec 0c             	sub    esp,0xc
 8048832:	8b 6c 24 28          	mov    ebp,DWORD PTR [esp+0x28]
 8048836:	8d b3 10 ff ff ff    	lea    esi,[ebx-0xf0]
 804883c:	e8 c7 fa ff ff       	call   8048308 <_init>
 8048841:	8d 83 0c ff ff ff    	lea    eax,[ebx-0xf4]
 8048847:	29 c6                	sub    esi,eax
 8048849:	c1 fe 02             	sar    esi,0x2
 804884c:	85 f6                	test   esi,esi
 804884e:	74 25                	je     8048875 <__libc_csu_init+0x55>
 8048850:	31 ff                	xor    edi,edi
 8048852:	8d b6 00 00 00 00    	lea    esi,[esi+0x0]
 8048858:	83 ec 04             	sub    esp,0x4
 804885b:	55                   	push   ebp
 804885c:	ff 74 24 2c          	push   DWORD PTR [esp+0x2c]
 8048860:	ff 74 24 2c          	push   DWORD PTR [esp+0x2c]
 8048864:	ff 94 bb 0c ff ff ff 	call   DWORD PTR [ebx+edi*4-0xf4]
 804886b:	83 c7 01             	add    edi,0x1
 804886e:	83 c4 10             	add    esp,0x10
 8048871:	39 fe                	cmp    esi,edi
 8048873:	75 e3                	jne    8048858 <__libc_csu_init+0x38>
 8048875:	83 c4 0c             	add    esp,0xc
 8048878:	5b                   	pop    ebx
 8048879:	5e                   	pop    esi
 804887a:	5f                   	pop    edi
 804887b:	5d                   	pop    ebp
 804887c:	c3                   	ret    
 804887d:	8d 76 00             	lea    esi,[esi+0x0]

08048880 <__libc_csu_fini>:
 8048880:	f3 c3                	repz ret 

Disassembly of section .fini:

08048884 <_fini>:
 8048884:	53                   	push   ebx
 8048885:	83 ec 08             	sub    esp,0x8
 8048888:	e8 63 fb ff ff       	call   80483f0 <__x86.get_pc_thunk.bx>
 804888d:	81 c3 73 17 00 00    	add    ebx,0x1773
 8048893:	83 c4 08             	add    esp,0x8
 8048896:	5b                   	pop    ebx
 8048897:	c3                   	ret    

Disassembly of section .rodata:

08048898 <_fp_hw>:
 8048898:	03 00                	add    eax,DWORD PTR [eax]
	...

0804889c <_IO_stdin_used>:
 804889c:	01 00                	add    DWORD PTR [eax],eax
 804889e:	02 00                	add    al,BYTE PTR [eax]

Disassembly of section .eh_frame_hdr:

080488a0 <.eh_frame_hdr>:
 80488a0:	01 1b                	add    DWORD PTR [ebx],ebx
 80488a2:	03 3b                	add    edi,DWORD PTR [ebx]
 80488a4:	30 00                	xor    BYTE PTR [eax],al
 80488a6:	00 00                	add    BYTE PTR [eax],al
 80488a8:	05 00 00 00 90       	add    eax,0x90000000
 80488ad:	fa                   	cli    
 80488ae:	ff                   	(bad)  
 80488af:	ff 60 00             	jmp    DWORD PTR [eax+0x0]
 80488b2:	00 00                	add    BYTE PTR [eax],al
 80488b4:	f0 fa                	lock cli 
 80488b6:	ff                   	(bad)  
 80488b7:	ff 84 00 00 00 40 fb 	inc    DWORD PTR [eax+eax*1-0x4c00000]
 80488be:	ff                   	(bad)  
 80488bf:	ff 4c 00 00          	dec    DWORD PTR [eax+eax*1+0x0]
 80488c3:	00 80 ff ff ff 98    	add    BYTE PTR [eax-0x67000001],al
 80488c9:	00 00                	add    BYTE PTR [eax],al
 80488cb:	00 e0                	add    al,ah
 80488cd:	ff                   	(bad)  
 80488ce:	ff                   	(bad)  
 80488cf:	ff e4                	jmp    esp
 80488d1:	00 00                	add    BYTE PTR [eax],al
	...

Disassembly of section .eh_frame:

080488d4 <.eh_frame>:
 80488d4:	14 00                	adc    al,0x0
 80488d6:	00 00                	add    BYTE PTR [eax],al
 80488d8:	00 00                	add    BYTE PTR [eax],al
 80488da:	00 00                	add    BYTE PTR [eax],al
 80488dc:	01 7a 52             	add    DWORD PTR [edx+0x52],edi
 80488df:	00 01                	add    BYTE PTR [ecx],al
 80488e1:	7c 08                	jl     80488eb <_IO_stdin_used+0x4f>
 80488e3:	01 1b                	add    DWORD PTR [ebx],ebx
 80488e5:	0c 04                	or     al,0x4
 80488e7:	04 88                	add    al,0x88
 80488e9:	01 00                	add    DWORD PTR [eax],eax
 80488eb:	00 10                	add    BYTE PTR [eax],dl
 80488ed:	00 00                	add    BYTE PTR [eax],al
 80488ef:	00 1c 00             	add    BYTE PTR [eax+eax*1],bl
 80488f2:	00 00                	add    BYTE PTR [eax],al
 80488f4:	ec                   	in     al,dx
 80488f5:	fa                   	cli    
 80488f6:	ff                   	(bad)  
 80488f7:	ff 02                	inc    DWORD PTR [edx]
 80488f9:	00 00                	add    BYTE PTR [eax],al
 80488fb:	00 00                	add    BYTE PTR [eax],al
 80488fd:	00 00                	add    BYTE PTR [eax],al
 80488ff:	00 20                	add    BYTE PTR [eax],ah
 8048901:	00 00                	add    BYTE PTR [eax],al
 8048903:	00 30                	add    BYTE PTR [eax],dh
 8048905:	00 00                	add    BYTE PTR [eax],al
 8048907:	00 28                	add    BYTE PTR [eax],ch
 8048909:	fa                   	cli    
 804890a:	ff                   	(bad)  
 804890b:	ff 60 00             	jmp    DWORD PTR [eax+0x0]
 804890e:	00 00                	add    BYTE PTR [eax],al
 8048910:	00 0e                	add    BYTE PTR [esi],cl
 8048912:	08 46 0e             	or     BYTE PTR [esi+0xe],al
 8048915:	0c 4a                	or     al,0x4a
 8048917:	0f 0b                	ud2    
 8048919:	74 04                	je     804891f <_IO_stdin_used+0x83>
 804891b:	78 00                	js     804891d <_IO_stdin_used+0x81>
 804891d:	3f                   	aas    
 804891e:	1a 3b                	sbb    bh,BYTE PTR [ebx]
 8048920:	2a 32                	sub    dh,BYTE PTR [edx]
 8048922:	24 22                	and    al,0x22
 8048924:	10 00                	adc    BYTE PTR [eax],al
 8048926:	00 00                	add    BYTE PTR [eax],al
 8048928:	54                   	push   esp
 8048929:	00 00                	add    BYTE PTR [eax],al
 804892b:	00 64 fa ff          	add    BYTE PTR [edx+edi*8-0x1],ah
 804892f:	ff 08                	dec    DWORD PTR [eax]
 8048931:	00 00                	add    BYTE PTR [eax],al
 8048933:	00 00                	add    BYTE PTR [eax],al
 8048935:	00 00                	add    BYTE PTR [eax],al
 8048937:	00 48 00             	add    BYTE PTR [eax+0x0],cl
 804893a:	00 00                	add    BYTE PTR [eax],al
 804893c:	68 00 00 00 e0       	push   0xe0000000
 8048941:	fe                   	(bad)  
 8048942:	ff                   	(bad)  
 8048943:	ff 5d 00             	call   FWORD PTR [ebp+0x0]
 8048946:	00 00                	add    BYTE PTR [eax],al
 8048948:	00 41 0e             	add    BYTE PTR [ecx+0xe],al
 804894b:	08 85 02 41 0e 0c    	or     BYTE PTR [ebp+0xc0e4102],al
 8048951:	87 03                	xchg   DWORD PTR [ebx],eax
 8048953:	41                   	inc    ecx
 8048954:	0e                   	push   cs
 8048955:	10 86 04 41 0e 14    	adc    BYTE PTR [esi+0x140e4104],al
 804895b:	83 05 4e 0e 20 69 0e 	add    DWORD PTR ds:0x69200e4e,0xe
 8048962:	24 41                	and    al,0x41
 8048964:	0e                   	push   cs
 8048965:	28 44 0e 2c          	sub    BYTE PTR [esi+ecx*1+0x2c],al
 8048969:	44                   	inc    esp
 804896a:	0e                   	push   cs
 804896b:	30 4d 0e             	xor    BYTE PTR [ebp+0xe],cl
 804896e:	20 47 0e             	and    BYTE PTR [edi+0xe],al
 8048971:	14 41                	adc    al,0x41
 8048973:	c3                   	ret    
 8048974:	0e                   	push   cs
 8048975:	10 41 c6             	adc    BYTE PTR [ecx-0x3a],al
 8048978:	0e                   	push   cs
 8048979:	0c 41                	or     al,0x41
 804897b:	c7                   	(bad)  
 804897c:	0e                   	push   cs
 804897d:	08 41 c5             	or     BYTE PTR [ecx-0x3b],al
 8048980:	0e                   	push   cs
 8048981:	04 00                	add    al,0x0
 8048983:	00 10                	add    BYTE PTR [eax],dl
 8048985:	00 00                	add    BYTE PTR [eax],al
 8048987:	00 b4 00 00 00 f4 fe 	add    BYTE PTR [eax+eax*1-0x10c0000],dh
 804898e:	ff                   	(bad)  
 804898f:	ff 02                	inc    DWORD PTR [edx]
	...

Disassembly of section .init_array:

08049f0c <.init_array>:
 8049f0c:	b0 84                	mov    al,0x84
 8049f0e:	04 08                	add    al,0x8

Disassembly of section .fini_array:

08049f10 <.fini_array>:
 8049f10:	80                   	.byte 0x80
 8049f11:	84 04 08             	test   BYTE PTR [eax+ecx*1],al

Disassembly of section .dynamic:

08049f14 <.dynamic>:
 8049f14:	01 00                	add    DWORD PTR [eax],eax
 8049f16:	00 00                	add    BYTE PTR [eax],al
 8049f18:	01 00                	add    DWORD PTR [eax],eax
 8049f1a:	00 00                	add    BYTE PTR [eax],al
 8049f1c:	0c 00                	or     al,0x0
 8049f1e:	00 00                	add    BYTE PTR [eax],al
 8049f20:	08 83 04 08 0d 00    	or     BYTE PTR [ebx+0xd0804],al
 8049f26:	00 00                	add    BYTE PTR [eax],al
 8049f28:	84 88 04 08 19 00    	test   BYTE PTR [eax+0x190804],cl
 8049f2e:	00 00                	add    BYTE PTR [eax],al
 8049f30:	0c 9f                	or     al,0x9f
 8049f32:	04 08                	add    al,0x8
 8049f34:	1b 00                	sbb    eax,DWORD PTR [eax]
 8049f36:	00 00                	add    BYTE PTR [eax],al
 8049f38:	04 00                	add    al,0x0
 8049f3a:	00 00                	add    BYTE PTR [eax],al
 8049f3c:	1a 00                	sbb    al,BYTE PTR [eax]
 8049f3e:	00 00                	add    BYTE PTR [eax],al
 8049f40:	10 9f 04 08 1c 00    	adc    BYTE PTR [edi+0x1c0804],bl
 8049f46:	00 00                	add    BYTE PTR [eax],al
 8049f48:	04 00                	add    al,0x0
 8049f4a:	00 00                	add    BYTE PTR [eax],al
 8049f4c:	f5                   	cmc    
 8049f4d:	fe                   	(bad)  
 8049f4e:	ff 6f ac             	jmp    FWORD PTR [edi-0x54]
 8049f51:	81 04 08 05 00 00 00 	add    DWORD PTR [eax+ecx*1],0x5
 8049f58:	4c                   	dec    esp
 8049f59:	82 04 08 06          	add    BYTE PTR [eax+ecx*1],0x6
 8049f5d:	00 00                	add    BYTE PTR [eax],al
 8049f5f:	00 cc                	add    ah,cl
 8049f61:	81 04 08 0a 00 00 00 	add    DWORD PTR [eax+ecx*1],0xa
 8049f68:	5b                   	pop    ebx
 8049f69:	00 00                	add    BYTE PTR [eax],al
 8049f6b:	00 0b                	add    BYTE PTR [ebx],cl
 8049f6d:	00 00                	add    BYTE PTR [eax],al
 8049f6f:	00 10                	add    BYTE PTR [eax],dl
 8049f71:	00 00                	add    BYTE PTR [eax],al
 8049f73:	00 15 00 00 00 00    	add    BYTE PTR ds:0x0,dl
 8049f79:	00 00                	add    BYTE PTR [eax],al
 8049f7b:	00 03                	add    BYTE PTR [ebx],al
 8049f7d:	00 00                	add    BYTE PTR [eax],al
 8049f7f:	00 00                	add    BYTE PTR [eax],al
 8049f81:	a0 04 08 02 00       	mov    al,ds:0x20804
 8049f86:	00 00                	add    BYTE PTR [eax],al
 8049f88:	28 00                	sub    BYTE PTR [eax],al
 8049f8a:	00 00                	add    BYTE PTR [eax],al
 8049f8c:	14 00                	adc    al,0x0
 8049f8e:	00 00                	add    BYTE PTR [eax],al
 8049f90:	11 00                	adc    DWORD PTR [eax],eax
 8049f92:	00 00                	add    BYTE PTR [eax],al
 8049f94:	17                   	pop    ss
 8049f95:	00 00                	add    BYTE PTR [eax],al
 8049f97:	00 e0                	add    al,ah
 8049f99:	82 04 08 11          	add    BYTE PTR [eax+ecx*1],0x11
 8049f9d:	00 00                	add    BYTE PTR [eax],al
 8049f9f:	00 d8                	add    al,bl
 8049fa1:	82 04 08 12          	add    BYTE PTR [eax+ecx*1],0x12
 8049fa5:	00 00                	add    BYTE PTR [eax],al
 8049fa7:	00 08                	add    BYTE PTR [eax],cl
 8049fa9:	00 00                	add    BYTE PTR [eax],al
 8049fab:	00 13                	add    BYTE PTR [ebx],dl
 8049fad:	00 00                	add    BYTE PTR [eax],al
 8049faf:	00 08                	add    BYTE PTR [eax],cl
 8049fb1:	00 00                	add    BYTE PTR [eax],al
 8049fb3:	00 fe                	add    dh,bh
 8049fb5:	ff                   	(bad)  
 8049fb6:	ff 6f b8             	jmp    FWORD PTR [edi-0x48]
 8049fb9:	82 04 08 ff          	add    BYTE PTR [eax+ecx*1],0xff
 8049fbd:	ff                   	(bad)  
 8049fbe:	ff 6f 01             	jmp    FWORD PTR [edi+0x1]
 8049fc1:	00 00                	add    BYTE PTR [eax],al
 8049fc3:	00 f0                	add    al,dh
 8049fc5:	ff                   	(bad)  
 8049fc6:	ff 6f a8             	jmp    FWORD PTR [edi-0x58]
 8049fc9:	82 04 08 00          	add    BYTE PTR [eax+ecx*1],0x0
	...

Disassembly of section .got:

08049ffc <.got>:
 8049ffc:	00 00                	add    BYTE PTR [eax],al
	...

Disassembly of section .got.plt:

0804a000 <.got.plt>:
 804a000:	14 9f                	adc    al,0x9f
 804a002:	04 08                	add    al,0x8
	...
 804a00c:	46                   	inc    esi
 804a00d:	83 04 08 56          	add    DWORD PTR [eax+ecx*1],0x56
 804a011:	83 04 08 66          	add    DWORD PTR [eax+ecx*1],0x66
 804a015:	83 04 08 76          	add    DWORD PTR [eax+ecx*1],0x76
 804a019:	83 04 08 86          	add    DWORD PTR [eax+ecx*1],0xffffff86
 804a01d:	83                   	.byte 0x83
 804a01e:	04 08                	add    al,0x8

Disassembly of section .data:

0804a020 <__data_start>:
 804a020:	00 00                	add    BYTE PTR [eax],al
	...

0804a024 <__dso_handle>:
 804a024:	00 00                	add    BYTE PTR [eax],al
 804a026:	00 00                	add    BYTE PTR [eax],al
 804a028:	23 10                	and    edx,DWORD PTR [eax]
 804a02a:	97                   	xchg   edi,eax
 804a02b:	a6                   	cmps   BYTE PTR ds:[esi],BYTE PTR es:[edi]
 804a02c:	13 d8                	adc    ebx,eax
 804a02e:	d5 04                	aad    0x4
 804a030:	3e bd 86 2e ed 36    	ds mov ebp,0x36ed2e86
 804a036:	4f                   	dec    edi
 804a037:	c0 c4 ab             	rol    ah,0xab
 804a03a:	0b 70 15             	or     esi,DWORD PTR [eax+0x15]
 804a03d:	39 85 6f 09 28 22    	cmp    DWORD PTR [ebp+0x2228096f],eax
 804a043:	3e 49                	ds dec ecx
 804a045:	4e                   	dec    esi
 804a046:	f2 6c                	repnz ins BYTE PTR es:[edi],dx
 804a048:	b1 67                	mov    cl,0x67
 804a04a:	7e 2f                	jle    804a07b <__TMC_END__+0xb>
 804a04c:	17                   	pop    ss
 804a04d:	17                   	pop    ss
 804a04e:	81 c8 63 35 8e 88    	or     eax,0x888e3563
 804a054:	4c                   	dec    esp
 804a055:	6e                   	outs   dx,BYTE PTR ds:[esi]
 804a056:	00 41 6c             	add    BYTE PTR [ecx+0x6c],al
 804a059:	6c                   	ins    BYTE PTR es:[edi],dx
 804a05a:	20 64 6f 6e          	and    BYTE PTR [edi+ebp*2+0x6e],ah
 804a05e:	65 21 20             	and    DWORD PTR gs:[eax],esp
 804a061:	42                   	inc    edx
 804a062:	79 65                	jns    804a0c9 <__TMC_END__+0x59>
 804a064:	2d 62 79 65 00       	sub    eax,0x657962
 804a069:	04 53                	add    al,0x53
 804a06b:	48                   	dec    eax
 804a06c:	13 00                	adc    eax,DWORD PTR [eax]

Disassembly of section .bss:

0804a06e <__bss_start>:
	...

Disassembly of section .comment:

00000000 <.comment>:
   0:	47                   	inc    edi
   1:	43                   	inc    ebx
   2:	43                   	inc    ebx
   3:	3a 20                	cmp    ah,BYTE PTR [eax]
   5:	28 55 62             	sub    BYTE PTR [ebp+0x62],dl
   8:	75 6e                	jne    78 <_init-0x8048290>
   a:	74 75                	je     81 <_init-0x8048287>
   c:	20 37                	and    BYTE PTR [edi],dh
   e:	2e 34 2e             	cs xor al,0x2e
  11:	30 2d 31 75 62 75    	xor    BYTE PTR ds:0x75627531,ch
  17:	6e                   	outs   dx,BYTE PTR ds:[esi]
  18:	74 75                	je     8f <_init-0x8048279>
  1a:	31 7e 31             	xor    DWORD PTR [esi+0x31],edi
  1d:	38 2e                	cmp    BYTE PTR [esi],ch
  1f:	30 34 2e             	xor    BYTE PTR [esi+ebp*1],dh
  22:	31 29                	xor    DWORD PTR [ecx],ebp
  24:	20 37                	and    BYTE PTR [edi],dh
  26:	2e 34 2e             	cs xor al,0x2e
  29:	30 00                	xor    BYTE PTR [eax],al
